; Function Attrs: mustprogress nounwind uwtable
define void @_ZN32pxrInternal_v0_24__pxrReserved__26HdSceneIndexPluginRegistryD2Ev(ptr noundef nonnull align 8 dereferenceable(192) %0) unnamed_addr #1 align 2 personality ptr @__gxx_personality_v0 {
  %2 = getelementptr inbounds nuw i8, ptr %0, i64 144
  %3 = getelementptr inbounds nuw i8, ptr %0, i64 160
  %4 = load ptr, ptr %3, align 8
  invoke void @_ZNSt8_Rb_treeINSt7__cxx1112basic_stringIcSt11char_traitsIcESaIcEEESt4pairIKS5_St6vectorIN32pxrInternal_v0_24__pxrReserved__7TfTokenESaISA_EEESt10_Select1stISD_ESt4lessIS5_ESaISD_EE8_M_eraseEPSt13_Rb_tree_nodeISD_E(ptr noundef nonnull align 8 dereferenceable(48) %2, ptr noundef %4)
          to label %_ZNSt3mapINSt7__cxx1112basic_stringIcSt11char_traitsIcESaIcEEESt6vectorIN32pxrInternal_v0_24__pxrReserved__7TfTokenESaIS8_EESt4lessIS5_ESaISt4pairIKS5_SA_EEED2Ev.exit unwind label %5

5:                                                ; preds = %1
  %6 = landingpad { ptr, i32 }
          catch ptr null
  %7 = extractvalue { ptr, i32 } %6, 0
  tail call void @__clang_call_terminate(ptr %7) #22
  unreachable

_ZNSt3mapINSt7__cxx1112basic_stringIcSt11char_traitsIcESaIcEEESt6vectorIN32pxrInternal_v0_24__pxrReserved__7TfTokenESaIS8_EESt4lessIS5_ESaISt4pairIKS5_SA_EEED2Ev.exit: ; preds = %1
  %8 = getelementptr inbounds nuw i8, ptr %0, i64 96
  %9 = getelementptr inbounds nuw i8, ptr %0, i64 112
  %10 = load ptr, ptr %9, align 8
  invoke void @_ZNSt8_Rb_treeINSt7__cxx1112basic_stringIcSt11char_traitsIcESaIcEEESt4pairIKS5_St3mapIiSt6vectorIN32pxrInternal_v0_24__pxrReserved__26HdSceneIndexPluginRegistry6_EntryESaISC_EESt4lessIiESaIS6_IKiSE_EEEESt10_Select1stISL_ESF_IS5_ESaISL_EE8_M_eraseEPSt13_Rb_tree_nodeISL_E(ptr noundef nonnull align 8 dereferenceable(48) %8, ptr noundef %10)
          to label %_ZNSt3mapINSt7__cxx1112basic_stringIcSt11char_traitsIcESaIcEEES_IiSt6vectorIN32pxrInternal_v0_24__pxrReserved__26HdSceneIndexPluginRegistry6_EntryESaIS9_EESt4lessIiESaISt4pairIKiSB_EEESC_IS5_ESaISE_IKS5_SI_EEED2Ev.exit unwind label %11

11:                                               ; preds = %_ZNSt3mapINSt7__cxx1112basic_stringIcSt11char_traitsIcESaIcEEESt6vectorIN32pxrInternal_v0_24__pxrReserved__7TfTokenESaIS8_EESt4lessIS5_ESaISt4pairIKS5_SA_EEED2Ev.exit
  %12 = landingpad { ptr, i32 }
          catch ptr null
  %13 = extractvalue { ptr, i32 } %12, 0
  tail call void @__clang_call_terminate(ptr %13) #22
  unreachable

_ZNSt3mapINSt7__cxx1112basic_stringIcSt11char_traitsIcESaIcEEES_IiSt6vectorIN32pxrInternal_v0_24__pxrReserved__26HdSceneIndexPluginRegistry6_EntryESaIS9_EESt4lessIiESaISt4pairIKiSB_EEESC_IS5_ESaISE_IKS5_SI_EEED2Ev.exit: ; preds = %_ZNSt3mapINSt7__cxx1112basic_stringIcSt11char_traitsIcESaIcEEESt6vectorIN32pxrInternal_v0_24__pxrReserved__7TfTokenESaIS8_EESt4lessIS5_ESaISt4pairIKS5_SA_EEED2Ev.exit
  tail call void @_ZN32pxrInternal_v0_24__pxrReserved__16HfPluginRegistryD2Ev(ptr noundef nonnull align 8 dereferenceable(89) %0) #18
  ret void
}